Certificate:
    Data:
        Version: 3 (0x2)
        Serial Number:
            ab:0d:cf:b2:81:19:93:26
        Signature Algorithm: sha1WithRSAEncryption
        Issuer: C=US, ST=Missouri, O=Siri Proxy, CN=paradox-productions.net, CN=paradox-productions.net
        Validity
            Not Before: Jan 26 17:42:22 2012 GMT
            Not After : Jan 25 17:42:22 2015 GMT
        Subject: C=US, ST=Missouri, O=Siri Proxy, CN=paradox-productions.net, CN=paradox-productions.net
        Subject Public Key Info:
            Public Key Algorithm: rsaEncryption
            RSA Public Key: (1024 bit)
                Modulus (1024 bit):
                    00:bb:03:13:ef:1f:55:6b:ac:15:ee:62:c1:5f:fd:
                    74:ec:ce:ae:51:21:97:e5:90:aa:50:5c:ff:9f:33:
                    75:c9:b1:7f:6d:28:fe:17:7c:c0:77:a8:a3:0c:3a:
                    52:f4:38:19:ee:c2:e1:99:6b:0f:8d:da:a1:fc:f4:
                    d2:24:4b:8f:9c:95:69:2c:1c:b9:d9:e5:fd:db:c3:
                    aa:54:6f:d4:37:2f:aa:e8:45:1c:84:3e:43:db:c0:
                    95:6e:b4:74:f5:fc:b2:08:d9:68:d5:6f:6f:6c:11:
                    2c:55:14:48:9c:41:a1:d2:95:1a:50:37:46:6a:53:
                    bc:8f:cf:2f:63:dd:7e:ee:47
                Exponent: 65537 (0x10001)
        X509v3 extensions:
            X509v3 Subject Key Identifier: 
                E4:5C:D2:66:E7:BA:B3:2B:CD:07:86:09:16:36:E8:04:56:E1:62:37
            X509v3 Authority Key Identifier: 
                keyid:E4:5C:D2:66:E7:BA:B3:2B:CD:07:86:09:16:36:E8:04:56:E1:62:37

            X509v3 Basic Constraints: 
                CA:TRUE
    Signature Algorithm: sha1WithRSAEncryption
        1e:05:e7:ff:95:65:f3:12:19:d0:c6:32:e3:ba:93:51:8e:a8:
        cc:00:49:66:e9:bc:d9:59:40:64:6c:f7:10:68:d9:f5:86:77:
        cc:c0:99:d8:83:07:8b:a5:3b:fd:79:59:d8:d0:e6:7d:81:7b:
        1a:b0:66:54:a8:a9:ad:e4:29:50:d2:2e:fe:6a:b2:27:25:68:
        02:99:2b:77:75:2d:91:2e:24:2c:b1:83:69:38:56:4f:9b:ca:
        9f:9a:f9:2e:9c:5c:86:92:db:af:58:9f:52:e4:15:79:98:cf:
        61:04:18:77:33:9a:f1:83:61:4b:ee:6f:66:2c:6d:40:d5:8e:
        ff:f5
-----BEGIN CERTIFICATE-----
MIICwDCCAimgAwIBAgIJAKsNz7KBGZMmMA0GCSqGSIb3DQEBBQUAMHkxCzAJBgNV
BAYTAlVTMREwDwYDVQQIDAhNaXNzb3VyaTETMBEGA1UECgwKU2lyaSBQcm94eTEg
MB4GA1UEAwwXcGFyYWRveC1wcm9kdWN0aW9ucy5uZXQxIDAeBgNVBAMMF3BhcmFk
b3gtcHJvZHVjdGlvbnMubmV0MB4XDTEyMDEyNjE3NDIyMloXDTE1MDEyNTE3NDIy
MloweTELMAkGA1UEBhMCVVMxETAPBgNVBAgMCE1pc3NvdXJpMRMwEQYDVQQKDApT
aXJpIFByb3h5MSAwHgYDVQQDDBdwYXJhZG94LXByb2R1Y3Rpb25zLm5ldDEgMB4G
A1UEAwwXcGFyYWRveC1wcm9kdWN0aW9ucy5uZXQwgZ8wDQYJKoZIhvcNAQEBBQAD
gY0AMIGJAoGBALsDE+8fVWusFe5iwV/9dOzOrlEhl+WQqlBc/58zdcmxf20o/hd8
wHeooww6UvQ4Ge7C4ZlrD43aofz00iRLj5yVaSwcudnl/dvDqlRv1DcvquhFHIQ+
Q9vAlW60dPX8sgjZaNVvb2wRLFUUSJxBodKVGlA3RmpTvI/PL2Pdfu5HAgMBAAGj
UDBOMB0GA1UdDgQWBBTkXNJm57qzK80HhgkWNugEVuFiNzAfBgNVHSMEGDAWgBTk
XNJm57qzK80HhgkWNugEVuFiNzAMBgNVHRMEBTADAQH/MA0GCSqGSIb3DQEBBQUA
A4GBAB4F5/+VZfMSGdDGMuO6k1GOqMwASWbpvNlZQGRs9xBo2fWGd8zAmdiDB4ul
O/15WdjQ5n2BexqwZlSoqa3kKVDSLv5qsiclaAKZK3d1LZEuJCyxg2k4Vk+byp+a
+S6cXIaS269Yn1LkFXmYz2EEGHczmvGDYUvub2YsbUDVjv/1
-----END CERTIFICATE-----
